target datalayout = "e-m:e-p270:32:32-p271:32:32-p272:64:64-i64:64-i128:128-f80:128-n8:16:32:64-S128"
target triple = "x86_64-pc-linux-gnu"

%struct.lua_TValue = type { %union.Value, [1 x i32], i32 }
%union.Value = type { ptr }
%struct.lua_State = type { i8, i8, i8, i8, i8, i8, i8, ptr, ptr, ptr, ptr, ptr, ptr, ptr, ptr, i32, i32, i16, i16, i32, ptr, ptr, ptr, ptr, ptr }
%struct.GCheader = type { i8, i8, i8 }
%struct.UpVal = type { i8, i8, i8, i8, ptr, %union.anon.3 }
%union.anon.3 = type { %struct.anon.4 }
%struct.anon.4 = type { ptr, ptr, ptr }
%struct.Closure = type { i8, i8, i8, i8, i8, i8, i8, ptr, ptr, %union.anon.0 }
%union.anon.0 = type { %struct.anon }
%struct.anon = type { ptr, ptr, ptr, [1 x %struct.lua_TValue] }
%struct.TString = type { i8, i8, i8, i16, ptr, i32, i32, [1 x i8] }
%struct.anon.1 = type { ptr, [1 x %struct.lua_TValue] }
%struct.Proto = type { i8, i8, i8, i8, i8, i8, i8, i8, ptr, ptr, ptr, ptr, ptr, i64, ptr, ptr, ptr, ptr, ptr, ptr, ptr, ptr, ptr, ptr, i32, i32, i32, i32, i32, i32, i32, i32, i32, i32 }

@luaO_nilobject_ = external hidden global %struct.lua_TValue, align 8
@.str.3 = private unnamed_addr constant [1 x i8] zeroinitializer, align 1

; Function Attrs: mustprogress nounwind uwtable
define internal noundef ptr @_ZL11aux_upvalueP10lua_TValueiPS0_(ptr noundef %0, i32 noundef %1, ptr noundef %2) #3 {
  %4 = alloca ptr, align 8
  %5 = alloca ptr, align 8
  %6 = alloca i32, align 4
  %7 = alloca ptr, align 8
  %8 = alloca ptr, align 8
  %9 = alloca i32, align 4
  %10 = alloca ptr, align 8
  %11 = alloca ptr, align 8
  store ptr %0, ptr %5, align 8, !tbaa !11
  store i32 %1, ptr %6, align 4, !tbaa !9
  store ptr %2, ptr %7, align 8, !tbaa !125
  call void @llvm.lifetime.start.p0(i64 8, ptr %8) #11
  %12 = load ptr, ptr %5, align 8, !tbaa !11
  %13 = getelementptr inbounds nuw %struct.lua_TValue, ptr %12, i32 0, i32 2
  %14 = load i32, ptr %13, align 4, !tbaa !49
  %15 = icmp eq i32 %14, 7
  br i1 %15, label %17, label %16

16:                                               ; preds = %3
  store ptr null, ptr %4, align 8
  store i32 1, ptr %9, align 4
  br label %105

17:                                               ; preds = %3
  %18 = load ptr, ptr %5, align 8, !tbaa !11
  %19 = getelementptr inbounds nuw %struct.lua_TValue, ptr %18, i32 0, i32 0
  %20 = load ptr, ptr %19, align 8, !tbaa !25
  store ptr %20, ptr %8, align 8, !tbaa !57
  %21 = load ptr, ptr %8, align 8, !tbaa !57
  %22 = getelementptr inbounds nuw %struct.Closure, ptr %21, i32 0, i32 3
  %23 = load i8, ptr %22, align 1, !tbaa !64
  %24 = icmp ne i8 %23, 0
  br i1 %24, label %25, label %45

25:                                               ; preds = %17
  %26 = load i32, ptr %6, align 4, !tbaa !9
  %27 = icmp sle i32 1, %26
  br i1 %27, label %28, label %35

28:                                               ; preds = %25
  %29 = load i32, ptr %6, align 4, !tbaa !9
  %30 = load ptr, ptr %8, align 8, !tbaa !57
  %31 = getelementptr inbounds nuw %struct.Closure, ptr %30, i32 0, i32 4
  %32 = load i8, ptr %31, align 4, !tbaa !127
  %33 = zext i8 %32 to i32
  %34 = icmp sle i32 %29, %33
  br i1 %34, label %36, label %35

35:                                               ; preds = %28, %25
  store ptr null, ptr %4, align 8
  store i32 1, ptr %9, align 4
  br label %105

36:                                               ; preds = %28
  %37 = load ptr, ptr %8, align 8, !tbaa !57
  %38 = getelementptr inbounds nuw %struct.Closure, ptr %37, i32 0, i32 9
  %39 = getelementptr inbounds nuw %struct.anon, ptr %38, i32 0, i32 3
  %40 = load i32, ptr %6, align 4, !tbaa !9
  %41 = sub nsw i32 %40, 1
  %42 = sext i32 %41 to i64
  %43 = getelementptr inbounds [1 x %struct.lua_TValue], ptr %39, i64 0, i64 %42
  %44 = load ptr, ptr %7, align 8, !tbaa !125
  store ptr %43, ptr %44, align 8, !tbaa !11
  store ptr @.str.3, ptr %4, align 8
  store i32 1, ptr %9, align 4
  br label %105

45:                                               ; preds = %17
  call void @llvm.lifetime.start.p0(i64 8, ptr %10) #11
  %46 = load ptr, ptr %8, align 8, !tbaa !57
  %47 = getelementptr inbounds nuw %struct.Closure, ptr %46, i32 0, i32 9
  %48 = getelementptr inbounds nuw %struct.anon.1, ptr %47, i32 0, i32 0
  %49 = load ptr, ptr %48, align 8, !tbaa !25
  store ptr %49, ptr %10, align 8, !tbaa !128
  %50 = load i32, ptr %6, align 4, !tbaa !9
  %51 = icmp sle i32 1, %50
  br i1 %51, label %52, label %59

52:                                               ; preds = %45
  %53 = load i32, ptr %6, align 4, !tbaa !9
  %54 = load ptr, ptr %10, align 8, !tbaa !128
  %55 = getelementptr inbounds nuw %struct.Proto, ptr %54, i32 0, i32 3
  %56 = load i8, ptr %55, align 1, !tbaa !130
  %57 = zext i8 %56 to i32
  %58 = icmp sle i32 %53, %57
  br i1 %58, label %60, label %59

59:                                               ; preds = %52, %45
  store ptr null, ptr %4, align 8
  store i32 1, ptr %9, align 4
  br label %104

60:                                               ; preds = %52
  call void @llvm.lifetime.start.p0(i64 8, ptr %11) #11
  %61 = load ptr, ptr %8, align 8, !tbaa !57
  %62 = getelementptr inbounds nuw %struct.Closure, ptr %61, i32 0, i32 9
  %63 = getelementptr inbounds nuw %struct.anon.1, ptr %62, i32 0, i32 1
  %64 = load i32, ptr %6, align 4, !tbaa !9
  %65 = sub nsw i32 %64, 1
  %66 = sext i32 %65 to i64
  %67 = getelementptr inbounds [1 x %struct.lua_TValue], ptr %63, i64 0, i64 %66
  store ptr %67, ptr %11, align 8, !tbaa !11
  %68 = load ptr, ptr %11, align 8, !tbaa !11
  %69 = getelementptr inbounds nuw %struct.lua_TValue, ptr %68, i32 0, i32 2
  %70 = load i32, ptr %69, align 4, !tbaa !49
  %71 = icmp eq i32 %70, 12
  br i1 %71, label %72, label %78

72:                                               ; preds = %60
  %73 = load ptr, ptr %11, align 8, !tbaa !11
  %74 = getelementptr inbounds nuw %struct.lua_TValue, ptr %73, i32 0, i32 0
  %75 = load ptr, ptr %74, align 8, !tbaa !25
  %76 = getelementptr inbounds nuw %struct.UpVal, ptr %75, i32 0, i32 4
  %77 = load ptr, ptr %76, align 8, !tbaa !134
  br label %80

78:                                               ; preds = %60
  %79 = load ptr, ptr %11, align 8, !tbaa !11
  br label %80

80:                                               ; preds = %78, %72
  %81 = phi ptr [ %77, %72 ], [ %79, %78 ]
  %82 = load ptr, ptr %7, align 8, !tbaa !125
  store ptr %81, ptr %82, align 8, !tbaa !11
  %83 = load i32, ptr %6, align 4, !tbaa !9
  %84 = icmp sle i32 1, %83
  br i1 %84, label %85, label %91

85:                                               ; preds = %80
  %86 = load i32, ptr %6, align 4, !tbaa !9
  %87 = load ptr, ptr %10, align 8, !tbaa !128
  %88 = getelementptr inbounds nuw %struct.Proto, ptr %87, i32 0, i32 27
  %89 = load i32, ptr %88, align 4, !tbaa !135
  %90 = icmp sle i32 %86, %89
  br i1 %90, label %92, label %91

91:                                               ; preds = %85, %80
  store ptr @.str.3, ptr %4, align 8
  store i32 1, ptr %9, align 4
  br label %103

92:                                               ; preds = %85
  %93 = load ptr, ptr %10, align 8, !tbaa !128
  %94 = getelementptr inbounds nuw %struct.Proto, ptr %93, i32 0, i32 17
  %95 = load ptr, ptr %94, align 8, !tbaa !136
  %96 = load i32, ptr %6, align 4, !tbaa !9
  %97 = sub nsw i32 %96, 1
  %98 = sext i32 %97 to i64
  %99 = getelementptr inbounds ptr, ptr %95, i64 %98
  %100 = load ptr, ptr %99, align 8, !tbaa !72
  %101 = getelementptr inbounds nuw %struct.TString, ptr %100, i32 0, i32 7
  %102 = getelementptr inbounds [1 x i8], ptr %101, i64 0, i64 0
  store ptr %102, ptr %4, align 8
  store i32 1, ptr %9, align 4
  br label %103

103:                                              ; preds = %92, %91
  call void @llvm.lifetime.end.p0(i64 8, ptr %11) #11
  br label %104

104:                                              ; preds = %103, %59
  call void @llvm.lifetime.end.p0(i64 8, ptr %10) #11
  br label %105

105:                                              ; preds = %104, %36, %35, %16
  call void @llvm.lifetime.end.p0(i64 8, ptr %8) #11
  %106 = load ptr, ptr %4, align 8
  ret ptr %106
}

; Function Attrs: alwaysinline mustprogress uwtable
define internal noundef ptr @_ZL10index2addrP9lua_Statei(ptr noundef %0, i32 noundef %1) #2 {
  %3 = alloca ptr, align 8
  %4 = alloca ptr, align 8
  %5 = alloca i32, align 4
  %6 = alloca ptr, align 8
  %7 = alloca i32, align 4
  store ptr %0, ptr %4, align 8, !tbaa !4
  store i32 %1, ptr %5, align 4, !tbaa !9
  %8 = load i32, ptr %5, align 4, !tbaa !9
  %9 = icmp sgt i32 %8, 0
  br i1 %9, label %10, label %27

10:                                               ; preds = %2
  call void @llvm.lifetime.start.p0(i64 8, ptr %6) #11
  %11 = load ptr, ptr %4, align 8, !tbaa !4
  %12 = getelementptr inbounds nuw %struct.lua_State, ptr %11, i32 0, i32 8
  %13 = load ptr, ptr %12, align 8, !tbaa !13
  %14 = load i32, ptr %5, align 4, !tbaa !9
  %15 = sub nsw i32 %14, 1
  %16 = sext i32 %15 to i64
  %17 = getelementptr inbounds %struct.lua_TValue, ptr %13, i64 %16
  store ptr %17, ptr %6, align 8, !tbaa !11
  %18 = load ptr, ptr %6, align 8, !tbaa !11
  %19 = load ptr, ptr %4, align 8, !tbaa !4
  %20 = getelementptr inbounds nuw %struct.lua_State, ptr %19, i32 0, i32 7
  %21 = load ptr, ptr %20, align 8, !tbaa !23
  %22 = icmp uge ptr %18, %21
  br i1 %22, label %23, label %24

23:                                               ; preds = %10
  store ptr @luaO_nilobject_, ptr %3, align 8
  store i32 1, ptr %7, align 4
  br label %26

24:                                               ; preds = %10
  %25 = load ptr, ptr %6, align 8, !tbaa !11
  store ptr %25, ptr %3, align 8
  store i32 1, ptr %7, align 4
  br label %26

26:                                               ; preds = %24, %23
  call void @llvm.lifetime.end.p0(i64 8, ptr %6) #11
  br label %41

27:                                               ; preds = %2
  %28 = load i32, ptr %5, align 4, !tbaa !9
  %29 = icmp sgt i32 %28, -10000
  br i1 %29, label %30, label %37

30:                                               ; preds = %27
  %31 = load ptr, ptr %4, align 8, !tbaa !4
  %32 = getelementptr inbounds nuw %struct.lua_State, ptr %31, i32 0, i32 7
  %33 = load ptr, ptr %32, align 8, !tbaa !23
  %34 = load i32, ptr %5, align 4, !tbaa !9
  %35 = sext i32 %34 to i64
  %36 = getelementptr inbounds %struct.lua_TValue, ptr %33, i64 %35
  store ptr %36, ptr %3, align 8
  br label %41

37:                                               ; preds = %27
  %38 = load ptr, ptr %4, align 8, !tbaa !4
  %39 = load i32, ptr %5, align 4, !tbaa !9
  %40 = call noundef ptr @_ZL11pseudo2addrP9lua_Statei(ptr noundef %38, i32 noundef %39)
  store ptr %40, ptr %3, align 8
  br label %41

41:                                               ; preds = %37, %30, %26
  %42 = load ptr, ptr %3, align 8
  ret ptr %42
}

; Function Attrs: mustprogress uwtable
define dso_local noundef ptr @_Z14lua_getupvalueP9lua_Stateii(ptr noundef %0, i32 noundef %1, i32 noundef %2) #0 {
  %4 = alloca ptr, align 8
  %5 = alloca i32, align 4
  %6 = alloca i32, align 4
  %7 = alloca ptr, align 8
  %8 = alloca ptr, align 8
  %9 = alloca ptr, align 8
  %10 = alloca ptr, align 8
  store ptr %0, ptr %4, align 8, !tbaa !4
  store i32 %1, ptr %5, align 4, !tbaa !9
  store i32 %2, ptr %6, align 4, !tbaa !9
  %11 = load ptr, ptr %4, align 8, !tbaa !4
  %12 = getelementptr inbounds %struct.lua_State, ptr %11, i64 0
  %13 = getelementptr inbounds nuw %struct.GCheader, ptr %12, i32 0, i32 1
  %14 = load i8, ptr %13, align 1, !tbaa !25
  %15 = zext i8 %14 to i32
  %16 = and i32 %15, 4
  %17 = icmp ne i32 %16, 0
  br i1 %17, label %18, label %24

18:                                               ; preds = %3
  %19 = load ptr, ptr %4, align 8, !tbaa !4
  %20 = load ptr, ptr %4, align 8, !tbaa !4
  %21 = getelementptr inbounds %struct.lua_State, ptr %20, i64 0
  %22 = load ptr, ptr %4, align 8, !tbaa !4
  %23 = getelementptr inbounds nuw %struct.lua_State, ptr %22, i32 0, i32 22
  call void @_Z16luaC_barrierbackP9lua_StateP8GCObjectPS2_(ptr noundef %19, ptr noundef %21, ptr noundef %23)
  br label %24

24:                                               ; preds = %18, %3
  call void @llvm.lifetime.start.p0(i64 8, ptr %7) #11
  call void @llvm.lifetime.start.p0(i64 8, ptr %8) #11
  %25 = load ptr, ptr %4, align 8, !tbaa !4
  %26 = load i32, ptr %5, align 4, !tbaa !9
  %27 = call noundef ptr @_ZL10index2addrP9lua_Statei(ptr noundef %25, i32 noundef %26)
  %28 = load i32, ptr %6, align 4, !tbaa !9
  %29 = call noundef ptr @_ZL11aux_upvalueP10lua_TValueiPS0_(ptr noundef %27, i32 noundef %28, ptr noundef %7)
  store ptr %29, ptr %8, align 8, !tbaa !62
  %30 = load ptr, ptr %8, align 8, !tbaa !62
  %31 = icmp ne ptr %30, null
  br i1 %31, label %32, label %43

32:                                               ; preds = %24
  call void @llvm.lifetime.start.p0(i64 8, ptr %9) #11
  %33 = load ptr, ptr %7, align 8, !tbaa !11
  store ptr %33, ptr %9, align 8, !tbaa !11
  call void @llvm.lifetime.start.p0(i64 8, ptr %10) #11
  %34 = load ptr, ptr %4, align 8, !tbaa !4
  %35 = getelementptr inbounds nuw %struct.lua_State, ptr %34, i32 0, i32 7
  %36 = load ptr, ptr %35, align 8, !tbaa !23
  store ptr %36, ptr %10, align 8, !tbaa !11
  %37 = load ptr, ptr %9, align 8, !tbaa !11
  %38 = load ptr, ptr %10, align 8, !tbaa !11
  call void @llvm.memcpy.p0.p0.i64(ptr align 8 %38, ptr align 8 %37, i64 16, i1 false), !tbaa.struct !24
  call void @llvm.lifetime.end.p0(i64 8, ptr %10) #11
  call void @llvm.lifetime.end.p0(i64 8, ptr %9) #11
  %39 = load ptr, ptr %4, align 8, !tbaa !4
  %40 = getelementptr inbounds nuw %struct.lua_State, ptr %39, i32 0, i32 7
  %41 = load ptr, ptr %40, align 8, !tbaa !23
  %42 = getelementptr inbounds nuw %struct.lua_TValue, ptr %41, i32 1
  store ptr %42, ptr %40, align 8, !tbaa !23
  br label %43

43:                                               ; preds = %32, %24
  %44 = load ptr, ptr %8, align 8, !tbaa !62
  call void @llvm.lifetime.end.p0(i64 8, ptr %8) #11
  call void @llvm.lifetime.end.p0(i64 8, ptr %7) #11
  ret ptr %44
}