; Function Attrs: mustprogress uwtable
define dso_local noundef ptr @_Z14lua_getupvalueP9lua_Stateii(ptr noundef %0, i32 noundef %1, i32 noundef %2) local_unnamed_addr #3 {
  %4 = getelementptr inbounds nuw i8, ptr %0, i64 1
  %5 = load i8, ptr %4, align 1, !tbaa !21
  %6 = and i8 %5, 4
  %.not = icmp eq i8 %6, 0
  br i1 %.not, label %9, label %7

7:                                                ; preds = %3
  %8 = getelementptr inbounds nuw i8, ptr %0, i64 104
  tail call void @_Z16luaC_barrierbackP9lua_StateP8GCObjectPS2_(ptr noundef nonnull %0, ptr noundef nonnull %0, ptr noundef nonnull %8)
  br label %9

9:                                                ; preds = %7, %3
  %10 = icmp sgt i32 %1, 0
  br i1 %10, label %11, label %19

11:                                               ; preds = %9
  %12 = getelementptr inbounds nuw i8, ptr %0, i64 16
  %13 = load ptr, ptr %12, align 8, !tbaa !4
  %14 = zext nneg i32 %1 to i64
  %15 = getelementptr %struct.lua_TValue, ptr %13, i64 %14
  %16 = getelementptr i8, ptr %15, i64 -16
  %17 = getelementptr inbounds nuw i8, ptr %0, i64 8
  %18 = load ptr, ptr %17, align 8, !tbaa !19
  %.not.i = icmp ult ptr %16, %18
  %.luaO_nilobject_.i = select i1 %.not.i, ptr %16, ptr @luaO_nilobject_
  br label %_ZL10index2addrP9lua_Statei.exit

19:                                               ; preds = %9
  %20 = icmp sgt i32 %1, -10000
  br i1 %20, label %21, label %26

21:                                               ; preds = %19
  %22 = getelementptr inbounds nuw i8, ptr %0, i64 8
  %23 = load ptr, ptr %22, align 8, !tbaa !19
  %24 = sext i32 %1 to i64
  %25 = getelementptr inbounds %struct.lua_TValue, ptr %23, i64 %24
  br label %_ZL10index2addrP9lua_Statei.exit

26:                                               ; preds = %19
  %27 = tail call fastcc noundef ptr @_ZL11pseudo2addrP9lua_Statei(ptr noundef nonnull %0, i32 noundef %1)
  br label %_ZL10index2addrP9lua_Statei.exit

_ZL10index2addrP9lua_Statei.exit:                 ; preds = %11, %21, %26
  %.1.i = phi ptr [ %.luaO_nilobject_.i, %11 ], [ %25, %21 ], [ %27, %26 ]
  %28 = getelementptr inbounds nuw i8, ptr %.1.i, i64 12
  %29 = load i32, ptr %28, align 4, !tbaa !47
  %30 = icmp eq i32 %29, 7
  br i1 %30, label %31, label %_ZL11aux_upvalueP10lua_TValueiPS0_.exit.thread

31:                                               ; preds = %_ZL10index2addrP9lua_Statei.exit
  %32 = load ptr, ptr %.1.i, align 8, !tbaa !21
  %33 = getelementptr inbounds nuw i8, ptr %32, i64 3
  %34 = load i8, ptr %33, align 1, !tbaa !59
  %.not.i13 = icmp eq i8 %34, 0
  br i1 %.not.i13, label %46, label %35

35:                                               ; preds = %31
  %36 = icmp sgt i32 %2, 0
  br i1 %36, label %37, label %_ZL11aux_upvalueP10lua_TValueiPS0_.exit.thread

37:                                               ; preds = %35
  %38 = getelementptr inbounds nuw i8, ptr %32, i64 4
  %39 = load i8, ptr %38, align 4, !tbaa !101
  %40 = zext i8 %39 to i32
  %.not28.i = icmp samesign ugt i32 %2, %40
  br i1 %.not28.i, label %_ZL11aux_upvalueP10lua_TValueiPS0_.exit.thread, label %41

41:                                               ; preds = %37
  %42 = getelementptr inbounds nuw i8, ptr %32, i64 48
  %43 = add nsw i32 %2, -1
  %44 = zext nneg i32 %43 to i64
  %45 = getelementptr inbounds nuw [1 x %struct.lua_TValue], ptr %42, i64 0, i64 %44
  br label %_ZL11aux_upvalueP10lua_TValueiPS0_.exit

46:                                               ; preds = %31
  %47 = getelementptr inbounds nuw i8, ptr %32, i64 24
  %48 = load ptr, ptr %47, align 8, !tbaa !21
  %49 = icmp sgt i32 %2, 0
  br i1 %49, label %50, label %_ZL11aux_upvalueP10lua_TValueiPS0_.exit.thread

50:                                               ; preds = %46
  %51 = getelementptr inbounds nuw i8, ptr %48, i64 3
  %52 = load i8, ptr %51, align 1, !tbaa !102
  %53 = zext i8 %52 to i32
  %.not26.i = icmp samesign ugt i32 %2, %53
  br i1 %.not26.i, label %_ZL11aux_upvalueP10lua_TValueiPS0_.exit.thread, label %54

54:                                               ; preds = %50
  %55 = getelementptr inbounds nuw i8, ptr %32, i64 32
  %56 = add nsw i32 %2, -1
  %57 = zext nneg i32 %56 to i64
  %58 = getelementptr inbounds nuw [1 x %struct.lua_TValue], ptr %55, i64 0, i64 %57
  %59 = getelementptr inbounds nuw i8, ptr %58, i64 12
  %60 = load i32, ptr %59, align 4, !tbaa !47
  %61 = icmp eq i32 %60, 12
  br i1 %61, label %62, label %66

62:                                               ; preds = %54
  %63 = load ptr, ptr %58, align 8, !tbaa !21
  %64 = getelementptr inbounds nuw i8, ptr %63, i64 8
  %65 = load ptr, ptr %64, align 8, !tbaa !106
  br label %66

66:                                               ; preds = %62, %54
  %67 = phi ptr [ %65, %62 ], [ %58, %54 ]
  %68 = getelementptr inbounds nuw i8, ptr %48, i64 148
  %69 = load i32, ptr %68, align 4, !tbaa !107
  %.not27.i = icmp sgt i32 %2, %69
  br i1 %.not27.i, label %_ZL11aux_upvalueP10lua_TValueiPS0_.exit, label %70

70:                                               ; preds = %66
  %71 = getelementptr inbounds nuw i8, ptr %48, i64 80
  %72 = load ptr, ptr %71, align 8, !tbaa !108
  %73 = getelementptr inbounds nuw ptr, ptr %72, i64 %57
  %74 = load ptr, ptr %73, align 8, !tbaa !109
  %75 = getelementptr inbounds nuw i8, ptr %74, i64 24
  br label %_ZL11aux_upvalueP10lua_TValueiPS0_.exit

_ZL11aux_upvalueP10lua_TValueiPS0_.exit:          ; preds = %70, %66, %41
  %.0 = phi ptr [ %67, %66 ], [ %67, %70 ], [ %45, %41 ]
  %.0.i = phi ptr [ @.str.3, %66 ], [ %75, %70 ], [ @.str.3, %41 ]
  %76 = getelementptr inbounds nuw i8, ptr %0, i64 8
  %77 = load ptr, ptr %76, align 8, !tbaa !19
  tail call void @llvm.memcpy.p0.p0.i64(ptr noundef nonnull align 8 dereferenceable(16) %77, ptr noundef nonnull align 8 dereferenceable(16) %.0, i64 16, i1 false), !tbaa.struct !20
  %78 = load ptr, ptr %76, align 8, !tbaa !19
  %79 = getelementptr inbounds nuw i8, ptr %78, i64 16
  store ptr %79, ptr %76, align 8, !tbaa !19
  br label %_ZL11aux_upvalueP10lua_TValueiPS0_.exit.thread

_ZL11aux_upvalueP10lua_TValueiPS0_.exit.thread:   ; preds = %46, %50, %35, %37, %_ZL10index2addrP9lua_Statei.exit, %_ZL11aux_upvalueP10lua_TValueiPS0_.exit
  %.0.i17 = phi ptr [ %.0.i, %_ZL11aux_upvalueP10lua_TValueiPS0_.exit ], [ null, %_ZL10index2addrP9lua_Statei.exit ], [ null, %37 ], [ null, %35 ], [ null, %50 ], [ null, %46 ]
  ret ptr %.0.i17
}